target datalayout = "e-m:e-p270:32:32-p271:32:32-p272:64:64-i64:64-i128:128-f80:128-n8:16:32:64-S128"
target triple = "x86_64-pc-linux-gnu"

%struct.asn1_string_st = type { i32, i32, ptr, i64 }

@.str = private unnamed_addr constant [123 x i8] c"generated/home/dtcxzyw/WorkSpace/Projects/compilers/llvm-opt-benchmark/bench/libquic/libquic/boringssl/crypto/asn1/a_int.c\00", align 1

; Function Attrs: nounwind uwtable
define hidden ptr @BN_to_ASN1_INTEGER(ptr noundef %0, ptr noundef %1) #0 {
  %3 = alloca ptr, align 8
  %4 = alloca ptr, align 8
  %5 = alloca ptr, align 8
  %6 = alloca ptr, align 8
  %7 = alloca i32, align 4
  %8 = alloca i32, align 4
  %9 = alloca ptr, align 8
  %10 = alloca i32, align 4
  store ptr %0, ptr %4, align 8, !tbaa !35
  store ptr %1, ptr %5, align 8, !tbaa !6
  call void @llvm.lifetime.start.p0(i64 8, ptr %6) #8
  call void @llvm.lifetime.start.p0(i64 4, ptr %7) #8
  call void @llvm.lifetime.start.p0(i64 4, ptr %8) #8
  %11 = load ptr, ptr %5, align 8, !tbaa !6
  %12 = icmp eq ptr %11, null
  br i1 %12, label %13, label %15

13:                                               ; preds = %2
  %14 = call ptr @ASN1_STRING_type_new(i32 noundef 2)
  store ptr %14, ptr %6, align 8, !tbaa !6
  br label %17

15:                                               ; preds = %2
  %16 = load ptr, ptr %5, align 8, !tbaa !6
  store ptr %16, ptr %6, align 8, !tbaa !6
  br label %17

17:                                               ; preds = %15, %13
  %18 = load ptr, ptr %6, align 8, !tbaa !6
  %19 = icmp eq ptr %18, null
  br i1 %19, label %20, label %21

20:                                               ; preds = %17
  call void @ERR_put_error(i32 noundef 12, i32 noundef 0, i32 noundef 158, ptr noundef @.str, i32 noundef 421)
  br label %93

21:                                               ; preds = %17
  %22 = load ptr, ptr %4, align 8, !tbaa !35
  %23 = call i32 @BN_is_negative(ptr noundef %22)
  %24 = icmp ne i32 %23, 0
  br i1 %24, label %25, label %32

25:                                               ; preds = %21
  %26 = load ptr, ptr %4, align 8, !tbaa !35
  %27 = call i32 @BN_is_zero(ptr noundef %26)
  %28 = icmp ne i32 %27, 0
  br i1 %28, label %32, label %29

29:                                               ; preds = %25
  %30 = load ptr, ptr %6, align 8, !tbaa !6
  %31 = getelementptr inbounds nuw %struct.asn1_string_st, ptr %30, i32 0, i32 1
  store i32 258, ptr %31, align 4, !tbaa !11
  br label %35

32:                                               ; preds = %25, %21
  %33 = load ptr, ptr %6, align 8, !tbaa !6
  %34 = getelementptr inbounds nuw %struct.asn1_string_st, ptr %33, i32 0, i32 1
  store i32 2, ptr %34, align 4, !tbaa !11
  br label %35

35:                                               ; preds = %32, %29
  %36 = load ptr, ptr %4, align 8, !tbaa !35
  %37 = call i32 @BN_num_bits(ptr noundef %36)
  store i32 %37, ptr %8, align 4, !tbaa !16
  %38 = load i32, ptr %8, align 4, !tbaa !16
  %39 = icmp eq i32 %38, 0
  br i1 %39, label %40, label %41

40:                                               ; preds = %35
  br label %45

41:                                               ; preds = %35
  %42 = load i32, ptr %8, align 4, !tbaa !16
  %43 = sdiv i32 %42, 8
  %44 = add nsw i32 %43, 1
  br label %45

45:                                               ; preds = %41, %40
  %46 = phi i32 [ 0, %40 ], [ %44, %41 ]
  store i32 %46, ptr %7, align 4, !tbaa !16
  %47 = load ptr, ptr %6, align 8, !tbaa !6
  %48 = getelementptr inbounds nuw %struct.asn1_string_st, ptr %47, i32 0, i32 0
  %49 = load i32, ptr %48, align 8, !tbaa !20
  %50 = load i32, ptr %7, align 4, !tbaa !16
  %51 = add nsw i32 %50, 4
  %52 = icmp slt i32 %49, %51
  br i1 %52, label %53, label %71

53:                                               ; preds = %45
  call void @llvm.lifetime.start.p0(i64 8, ptr %9) #8
  %54 = load ptr, ptr %6, align 8, !tbaa !6
  %55 = getelementptr inbounds nuw %struct.asn1_string_st, ptr %54, i32 0, i32 2
  %56 = load ptr, ptr %55, align 8, !tbaa !21
  %57 = load i32, ptr %7, align 4, !tbaa !16
  %58 = add nsw i32 %57, 4
  %59 = sext i32 %58 to i64
  %60 = call ptr @realloc(ptr noundef %56, i64 noundef %59) #10
  store ptr %60, ptr %9, align 8, !tbaa !24
  %61 = load ptr, ptr %9, align 8, !tbaa !24
  %62 = icmp ne ptr %61, null
  br i1 %62, label %64, label %63

63:                                               ; preds = %53
  call void @ERR_put_error(i32 noundef 12, i32 noundef 0, i32 noundef 65, ptr noundef @.str, i32 noundef 433)
  store i32 2, ptr %10, align 4
  br label %68

64:                                               ; preds = %53
  %65 = load ptr, ptr %9, align 8, !tbaa !24
  %66 = load ptr, ptr %6, align 8, !tbaa !6
  %67 = getelementptr inbounds nuw %struct.asn1_string_st, ptr %66, i32 0, i32 2
  store ptr %65, ptr %67, align 8, !tbaa !21
  store i32 0, ptr %10, align 4
  br label %68

68:                                               ; preds = %63, %64
  call void @llvm.lifetime.end.p0(i64 8, ptr %9) #8
  %69 = load i32, ptr %10, align 4
  switch i32 %69, label %100 [
    i32 0, label %70
    i32 2, label %93
  ]

70:                                               ; preds = %68
  br label %71

71:                                               ; preds = %70, %45
  %72 = load ptr, ptr %4, align 8, !tbaa !35
  %73 = load ptr, ptr %6, align 8, !tbaa !6
  %74 = getelementptr inbounds nuw %struct.asn1_string_st, ptr %73, i32 0, i32 2
  %75 = load ptr, ptr %74, align 8, !tbaa !21
  %76 = call i64 @BN_bn2bin(ptr noundef %72, ptr noundef %75)
  %77 = trunc i64 %76 to i32
  %78 = load ptr, ptr %6, align 8, !tbaa !6
  %79 = getelementptr inbounds nuw %struct.asn1_string_st, ptr %78, i32 0, i32 0
  store i32 %77, ptr %79, align 8, !tbaa !20
  %80 = load ptr, ptr %6, align 8, !tbaa !6
  %81 = getelementptr inbounds nuw %struct.asn1_string_st, ptr %80, i32 0, i32 0
  %82 = load i32, ptr %81, align 8, !tbaa !20
  %83 = icmp ne i32 %82, 0
  br i1 %83, label %91, label %84

84:                                               ; preds = %71
  %85 = load ptr, ptr %6, align 8, !tbaa !6
  %86 = getelementptr inbounds nuw %struct.asn1_string_st, ptr %85, i32 0, i32 2
  %87 = load ptr, ptr %86, align 8, !tbaa !21
  %88 = getelementptr inbounds i8, ptr %87, i64 0
  store i8 0, ptr %88, align 1, !tbaa !19
  %89 = load ptr, ptr %6, align 8, !tbaa !6
  %90 = getelementptr inbounds nuw %struct.asn1_string_st, ptr %89, i32 0, i32 0
  store i32 1, ptr %90, align 8, !tbaa !20
  br label %91

91:                                               ; preds = %84, %71
  %92 = load ptr, ptr %6, align 8, !tbaa !6
  store ptr %92, ptr %3, align 8
  store i32 1, ptr %10, align 4
  br label %100

93:                                               ; preds = %68, %20
  %94 = load ptr, ptr %6, align 8, !tbaa !6
  %95 = load ptr, ptr %5, align 8, !tbaa !6
  %96 = icmp ne ptr %94, %95
  br i1 %96, label %97, label %99

97:                                               ; preds = %93
  %98 = load ptr, ptr %6, align 8, !tbaa !6
  call void @ASN1_STRING_free(ptr noundef %98)
  br label %99

99:                                               ; preds = %97, %93
  store ptr null, ptr %3, align 8
  store i32 1, ptr %10, align 4
  br label %100

100:                                              ; preds = %99, %91, %68
  call void @llvm.lifetime.end.p0(i64 4, ptr %8) #8
  call void @llvm.lifetime.end.p0(i64 4, ptr %7) #8
  call void @llvm.lifetime.end.p0(i64 8, ptr %6) #8
  %101 = load ptr, ptr %3, align 8
  ret ptr %101
}