; Function Attrs: nounwind uwtable
define hidden ptr @BN_to_ASN1_INTEGER(ptr noundef %0, ptr noundef %1) local_unnamed_addr #0 {
  %3 = icmp eq ptr %1, null
  br i1 %3, label %4, label %.thread

4:                                                ; preds = %2
  %5 = tail call ptr @ASN1_STRING_type_new(i32 noundef 2) #10
  %6 = icmp eq ptr %5, null
  br i1 %6, label %7, label %.thread

7:                                                ; preds = %4
  tail call void @ERR_put_error(i32 noundef 12, i32 noundef 0, i32 noundef 158, ptr noundef nonnull @.str, i32 noundef 421) #10
  br label %35

.thread:                                          ; preds = %2, %4
  %.02941 = phi ptr [ %5, %4 ], [ %1, %2 ]
  %8 = tail call i32 @BN_is_negative(ptr noundef %0) #10
  %.not = icmp eq i32 %8, 0
  br i1 %.not, label %11, label %9

9:                                                ; preds = %.thread
  %10 = tail call i32 @BN_is_zero(ptr noundef %0) #10
  %.not34 = icmp eq i32 %10, 0
  br i1 %.not34, label %12, label %11

11:                                               ; preds = %9, %.thread
  br label %12

12:                                               ; preds = %9, %11
  %.sink = phi i32 [ 2, %11 ], [ 258, %9 ]
  %13 = getelementptr inbounds nuw i8, ptr %.02941, i64 4
  store i32 %.sink, ptr %13, align 4, !tbaa !6
  %14 = tail call i32 @BN_num_bits(ptr noundef %0) #10
  %15 = icmp eq i32 %14, 0
  br i1 %15, label %19, label %16

16:                                               ; preds = %12
  %17 = sdiv i32 %14, 8
  %18 = add nsw i32 %17, 5
  br label %19

19:                                               ; preds = %12, %16
  %20 = phi i32 [ %18, %16 ], [ 4, %12 ]
  %21 = load i32, ptr %.02941, align 8, !tbaa !14
  %22 = icmp slt i32 %21, %20
  %23 = getelementptr inbounds nuw i8, ptr %.02941, i64 8
  %24 = load ptr, ptr %23, align 8, !tbaa !15
  br i1 %22, label %25, label %._crit_edge

25:                                               ; preds = %19
  %26 = sext i32 %20 to i64
  %27 = tail call ptr @realloc(ptr noundef %24, i64 noundef %26) #12
  %.not35 = icmp eq ptr %27, null
  br i1 %.not35, label %28, label %.thread42

.thread42:                                        ; preds = %25
  store ptr %27, ptr %23, align 8, !tbaa !15
  br label %._crit_edge

28:                                               ; preds = %25
  tail call void @ERR_put_error(i32 noundef 12, i32 noundef 0, i32 noundef 65, ptr noundef nonnull @.str, i32 noundef 433) #10
  br label %35

._crit_edge:                                      ; preds = %19, %.thread42
  %29 = phi ptr [ %27, %.thread42 ], [ %24, %19 ]
  %30 = tail call i64 @BN_bn2bin(ptr noundef %0, ptr noundef %29) #10
  %31 = trunc i64 %30 to i32
  store i32 %31, ptr %.02941, align 8, !tbaa !14
  %.not36 = icmp eq i32 %31, 0
  br i1 %.not36, label %32, label %37

32:                                               ; preds = %._crit_edge
  %33 = getelementptr inbounds nuw i8, ptr %.02941, i64 8
  %34 = load ptr, ptr %33, align 8, !tbaa !15
  store i8 0, ptr %34, align 1, !tbaa !16
  store i32 1, ptr %.02941, align 8, !tbaa !14
  br label %37

35:                                               ; preds = %28, %7
  %.02940 = phi ptr [ %.02941, %28 ], [ null, %7 ]
  %.not37 = icmp eq ptr %.02940, %1
  br i1 %.not37, label %37, label %36

36:                                               ; preds = %35
  tail call void @ASN1_STRING_free(ptr noundef %.02940) #10
  br label %37

37:                                               ; preds = %35, %36, %._crit_edge, %32
  %.028 = phi ptr [ %.02941, %32 ], [ %.02941, %._crit_edge ], [ null, %36 ], [ null, %35 ]
  ret ptr %.028
}